target datalayout = "e-m:e-p270:32:32-p271:32:32-p272:64:64-i64:64-i128:128-f80:128-n8:16:32:64-S128"
target triple = "x86_64-unknown-linux-gnu"

%"class.node::builtins::BuiltinLoader" = type { %"class.node::ThreadsafeCopyOnWrite", %"class.node::UnionBytes", %"class.std::shared_ptr.0" }
%"class.node::ThreadsafeCopyOnWrite" = type { %"class.node::CopyOnWrite" }
%"class.node::CopyOnWrite" = type { %"class.std::shared_ptr" }
%"class.std::shared_ptr" = type { %"class.std::__shared_ptr" }
%"class.std::__shared_ptr" = type { ptr, %"class.std::__shared_count" }
%"class.std::__shared_count" = type { ptr }
%"class.node::UnionBytes" = type { ptr, ptr }
%"class.std::shared_ptr.0" = type { %"class.std::__shared_ptr.1" }
%"class.std::__shared_ptr.1" = type { ptr, %"class.std::__shared_count" }
%"class.std::map" = type { %"class.std::_Rb_tree" }
%"class.std::_Rb_tree" = type { %"struct.std::_Rb_tree<std::__cxx11::basic_string<char>, std::pair<const std::__cxx11::basic_string<char>, node::UnionBytes>, std::_Select1st<std::pair<const std::__cxx11::basic_string<char>, node::UnionBytes>>, std::less<std::__cxx11::basic_string<char>>>::_Rb_tree_impl" }
%"struct.std::_Rb_tree<std::__cxx11::basic_string<char>, std::pair<const std::__cxx11::basic_string<char>, node::UnionBytes>, std::_Select1st<std::pair<const std::__cxx11::basic_string<char>, node::UnionBytes>>, std::less<std::__cxx11::basic_string<char>>>::_Rb_tree_impl" = type { %"struct.std::_Rb_tree_key_compare", %"struct.std::_Rb_tree_header" }
%"struct.std::_Rb_tree_key_compare" = type { %"struct.std::less" }
%"struct.std::less" = type { i8 }
%"struct.std::_Rb_tree_header" = type { %"struct.std::_Rb_tree_node_base", i64 }
%"struct.std::_Rb_tree_node_base" = type { i32, ptr, ptr, ptr }
%"struct.node::ThreadsafeCopyOnWrite<std::map<std::__cxx11::basic_string<char>, node::UnionBytes>>::Impl" = type { %"class.node::MutexBase.327", %"class.std::map" }
%"class.node::MutexBase.327" = type { %union.pthread_rwlock_t }
%union.pthread_rwlock_t = type { %struct.__pthread_rwlock_arch_t }
%struct.__pthread_rwlock_arch_t = type { i32, i32, i32, i32, i32, i32, i32, i32, i8, [7 x i8], i64, i32 }
%"struct.std::pair" = type <{ %"struct.std::_Rb_tree_iterator", i8, [7 x i8] }>
%"struct.std::_Rb_tree_iterator" = type { ptr }
%"class.node::ThreadsafeCopyOnWrite<std::map<std::__cxx11::basic_string<char>, node::UnionBytes>>::Write" = type { ptr, ptr, %"class.node::MutexBase<node::LibuvRwlockTraits>::ScopedLock" }
%"class.node::MutexBase<node::LibuvRwlockTraits>::ScopedLock" = type { ptr }
%"struct.std::pair.505" = type { ptr, ptr }

; Function Attrs: mustprogress nounwind uwtable
define linkonce_odr dso_local void @_ZN4node17LibuvRwlockTraits10mutex_lockEP16pthread_rwlock_t(ptr noundef %mutex) #4 comdat align 2 {
entry:
  %mutex.addr = alloca ptr, align 8
  store ptr %mutex, ptr %mutex.addr, align 8
  %0 = load ptr, ptr %mutex.addr, align 8
  call void @uv_rwlock_wrlock(ptr noundef %0)
  ret void
}

; Function Attrs: mustprogress nounwind uwtable
define linkonce_odr dso_local void @_ZN4node17LibuvRwlockTraits12mutex_unlockEP16pthread_rwlock_t(ptr noundef %mutex) #4 comdat align 2 {
entry:
  %mutex.addr = alloca ptr, align 8
  store ptr %mutex, ptr %mutex.addr, align 8
  %0 = load ptr, ptr %mutex.addr, align 8
  call void @uv_rwlock_wrunlock(ptr noundef %0)
  ret void
}

; Function Attrs: mustprogress nounwind uwtable
define linkonce_odr dso_local noundef nonnull align 8 dereferenceable(16) ptr @_ZNSt10__pair_getILm1EE10__move_getIRPKcRKN4node10UnionBytesEEEOT0_OSt4pairIT_S9_E(ptr noundef nonnull align 8 dereferenceable(16) %__pair) #4 comdat align 2 {
entry:
  %__pair.addr = alloca ptr, align 8
  store ptr %__pair, ptr %__pair.addr, align 8
  %0 = load ptr, ptr %__pair.addr, align 8
  %second = getelementptr inbounds %"struct.std::pair.505", ptr %0, i32 0, i32 1
  %1 = load ptr, ptr %second, align 8
  ret ptr %1
}

; Function Attrs: mustprogress nounwind uwtable
define linkonce_odr dso_local noundef nonnull align 8 dereferenceable(8) ptr @_ZNSt10__pair_getILm0EE10__move_getIRPKcRKN4node10UnionBytesEEEOT_OSt4pairIS9_T0_E(ptr noundef nonnull align 8 dereferenceable(16) %__pair) #4 comdat align 2 {
entry:
  %__pair.addr = alloca ptr, align 8
  store ptr %__pair, ptr %__pair.addr, align 8
  %0 = load ptr, ptr %__pair.addr, align 8
  %first = getelementptr inbounds %"struct.std::pair.505", ptr %0, i32 0, i32 0
  %1 = load ptr, ptr %first, align 8
  ret ptr %1
}

; Function Attrs: mustprogress nounwind uwtable
define linkonce_odr dso_local void @_ZN4node9MutexBaseINS_17LibuvRwlockTraitsEE10ScopedLockC2ERKS2_(ptr noundef nonnull align 8 dereferenceable(8) %this, ptr noundef nonnull align 8 dereferenceable(56) %mutex) unnamed_addr #4 comdat align 2 {
entry:
  %this.addr = alloca ptr, align 8
  %mutex.addr = alloca ptr, align 8
  store ptr %this, ptr %this.addr, align 8
  store ptr %mutex, ptr %mutex.addr, align 8
  %this1 = load ptr, ptr %this.addr, align 8
  %mutex_ = getelementptr inbounds %"class.node::MutexBase<node::LibuvRwlockTraits>::ScopedLock", ptr %this1, i32 0, i32 0
  %0 = load ptr, ptr %mutex.addr, align 8
  store ptr %0, ptr %mutex_, align 8
  %mutex_2 = getelementptr inbounds %"class.node::MutexBase<node::LibuvRwlockTraits>::ScopedLock", ptr %this1, i32 0, i32 0
  %1 = load ptr, ptr %mutex_2, align 8
  %mutex_3 = getelementptr inbounds %"class.node::MutexBase.327", ptr %1, i32 0, i32 0
  call void @_ZN4node17LibuvRwlockTraits10mutex_lockEP16pthread_rwlock_t(ptr noundef %mutex_3)
  ret void
}

; Function Attrs: mustprogress nounwind uwtable
define linkonce_odr dso_local void @_ZN4node9MutexBaseINS_17LibuvRwlockTraitsEE10ScopedLockD2Ev(ptr noundef nonnull align 8 dereferenceable(8) %this) unnamed_addr #4 comdat align 2 {
entry:
  %this.addr = alloca ptr, align 8
  store ptr %this, ptr %this.addr, align 8
  %this1 = load ptr, ptr %this.addr, align 8
  %mutex_ = getelementptr inbounds %"class.node::MutexBase<node::LibuvRwlockTraits>::ScopedLock", ptr %this1, i32 0, i32 0
  %0 = load ptr, ptr %mutex_, align 8
  %mutex_2 = getelementptr inbounds %"class.node::MutexBase.327", ptr %0, i32 0, i32 0
  call void @_ZN4node17LibuvRwlockTraits12mutex_unlockEP16pthread_rwlock_t(ptr noundef %mutex_2)
  ret void
}

; Function Attrs: mustprogress nounwind uwtable
define linkonce_odr dso_local noundef nonnull align 8 dereferenceable(16) ptr @_ZSt3getILm1ERPKcRKN4node10UnionBytesEEONSt13tuple_elementIXT_ESt4pairIT0_T1_EE4typeEOSB_(ptr noundef nonnull align 8 dereferenceable(16) %__in) #4 comdat {
entry:
  %__in.addr = alloca ptr, align 8
  store ptr %__in, ptr %__in.addr, align 8
  %0 = load ptr, ptr %__in.addr, align 8
  %call = call noundef nonnull align 8 dereferenceable(16) ptr @_ZNSt10__pair_getILm1EE10__move_getIRPKcRKN4node10UnionBytesEEEOT0_OSt4pairIT_S9_E(ptr noundef nonnull align 8 dereferenceable(16) %0) #3
  ret ptr %call
}

; Function Attrs: mustprogress nounwind uwtable
define linkonce_odr dso_local noundef nonnull align 8 dereferenceable(8) ptr @_ZSt3getILm0ERPKcRKN4node10UnionBytesEEONSt13tuple_elementIXT_ESt4pairIT0_T1_EE4typeEOSB_(ptr noundef nonnull align 8 dereferenceable(16) %__in) #4 comdat {
entry:
  %__in.addr = alloca ptr, align 8
  store ptr %__in, ptr %__in.addr, align 8
  %0 = load ptr, ptr %__in.addr, align 8
  %call = call noundef nonnull align 8 dereferenceable(8) ptr @_ZNSt10__pair_getILm0EE10__move_getIRPKcRKN4node10UnionBytesEEEOT_OSt4pairIS9_T0_E(ptr noundef nonnull align 8 dereferenceable(16) %0) #3
  ret ptr %call
}

; Function Attrs: mustprogress nounwind uwtable
define linkonce_odr dso_local void @_ZNSt4pairIRPKcRKN4node10UnionBytesEEC2IS2_S6_TnNSt9enable_ifIXaaclsr5_PCCPE18_ConstructiblePairIT_T0_EEclsr5_PCCPE26_ImplicitlyConvertiblePairISA_SB_EEEbE4typeELb1EEES2_S6_(ptr noundef nonnull align 8 dereferenceable(16) %this, ptr noundef nonnull align 8 dereferenceable(8) %__a, ptr noundef nonnull align 8 dereferenceable(16) %__b) unnamed_addr #4 comdat align 2 {
entry:
  %this.addr = alloca ptr, align 8
  %__a.addr = alloca ptr, align 8
  %__b.addr = alloca ptr, align 8
  store ptr %this, ptr %this.addr, align 8
  store ptr %__a, ptr %__a.addr, align 8
  store ptr %__b, ptr %__b.addr, align 8
  %this1 = load ptr, ptr %this.addr, align 8
  %first = getelementptr inbounds %"struct.std::pair.505", ptr %this1, i32 0, i32 0
  %0 = load ptr, ptr %__a.addr, align 8
  store ptr %0, ptr %first, align 8
  %second = getelementptr inbounds %"struct.std::pair.505", ptr %this1, i32 0, i32 1
  %1 = load ptr, ptr %__b.addr, align 8
  store ptr %1, ptr %second, align 8
  ret void
}

; Function Attrs: mustprogress nounwind uwtable
define linkonce_odr dso_local void @_ZN4node21ThreadsafeCopyOnWriteISt3mapINSt7__cxx1112basic_stringIcSt11char_traitsIcESaIcEEENS_10UnionBytesESt4lessIS7_ESaISt4pairIKS7_S8_EEEE5WriteC2EPSG_(ptr noundef nonnull align 8 dereferenceable(24) %this, ptr noundef %cow) unnamed_addr #4 comdat align 2 {
entry:
  %this.addr = alloca ptr, align 8
  %cow.addr = alloca ptr, align 8
  store ptr %this, ptr %this.addr, align 8
  store ptr %cow, ptr %cow.addr, align 8
  %this1 = load ptr, ptr %this.addr, align 8
  %cow_ = getelementptr inbounds %"class.node::ThreadsafeCopyOnWrite<std::map<std::__cxx11::basic_string<char>, node::UnionBytes>>::Write", ptr %this1, i32 0, i32 0
  %0 = load ptr, ptr %cow.addr, align 8
  store ptr %0, ptr %cow_, align 8
  %impl_ = getelementptr inbounds %"class.node::ThreadsafeCopyOnWrite<std::map<std::__cxx11::basic_string<char>, node::UnionBytes>>::Write", ptr %this1, i32 0, i32 1
  %1 = load ptr, ptr %cow.addr, align 8
  %impl_2 = getelementptr inbounds %"class.node::ThreadsafeCopyOnWrite", ptr %1, i32 0, i32 0
  %call = call noundef ptr @_ZN4node11CopyOnWriteINS_21ThreadsafeCopyOnWriteISt3mapINSt7__cxx1112basic_stringIcSt11char_traitsIcESaIcEEENS_10UnionBytesESt4lessIS8_ESaISt4pairIKS8_S9_EEEE4ImplEE5writeEv(ptr noundef nonnull align 8 dereferenceable(16) %impl_2)
  store ptr %call, ptr %impl_, align 8
  %lock_ = getelementptr inbounds %"class.node::ThreadsafeCopyOnWrite<std::map<std::__cxx11::basic_string<char>, node::UnionBytes>>::Write", ptr %this1, i32 0, i32 2
  %impl_3 = getelementptr inbounds %"class.node::ThreadsafeCopyOnWrite<std::map<std::__cxx11::basic_string<char>, node::UnionBytes>>::Write", ptr %this1, i32 0, i32 1
  %2 = load ptr, ptr %impl_3, align 8
  %mutex = getelementptr inbounds %"struct.node::ThreadsafeCopyOnWrite<std::map<std::__cxx11::basic_string<char>, node::UnionBytes>>::Impl", ptr %2, i32 0, i32 0
  call void @_ZN4node9MutexBaseINS_17LibuvRwlockTraitsEE10ScopedLockC2ERKS2_(ptr noundef nonnull align 8 dereferenceable(8) %lock_, ptr noundef nonnull align 8 dereferenceable(56) %mutex)
  ret void
}

; Function Attrs: mustprogress nounwind uwtable
define linkonce_odr dso_local void @_ZN4node21ThreadsafeCopyOnWriteISt3mapINSt7__cxx1112basic_stringIcSt11char_traitsIcESaIcEEENS_10UnionBytesESt4lessIS7_ESaISt4pairIKS7_S8_EEEE5WriteD2Ev(ptr noundef nonnull align 8 dereferenceable(24) %this) unnamed_addr #4 comdat align 2 {
entry:
  %this.addr = alloca ptr, align 8
  store ptr %this, ptr %this.addr, align 8
  %this1 = load ptr, ptr %this.addr, align 8
  %lock_ = getelementptr inbounds %"class.node::ThreadsafeCopyOnWrite<std::map<std::__cxx11::basic_string<char>, node::UnionBytes>>::Write", ptr %this1, i32 0, i32 2
  call void @_ZN4node9MutexBaseINS_17LibuvRwlockTraitsEE10ScopedLockD2Ev(ptr noundef nonnull align 8 dereferenceable(8) %lock_) #3
  ret void
}

; Function Attrs: mustprogress nounwind uwtable
define linkonce_odr dso_local { ptr, i8 } @_ZNSt3mapINSt7__cxx1112basic_stringIcSt11char_traitsIcESaIcEEEN4node10UnionBytesESt4lessIS5_ESaISt4pairIKS5_S7_EEE7emplaceIJRPKcRKS7_EEESA_ISt17_Rb_tree_iteratorISC_EbEDpOT_(ptr noundef nonnull align 8 dereferenceable(48) %this, ptr noundef nonnull align 8 dereferenceable(8) %__args, ptr noundef nonnull align 8 dereferenceable(16) %__args1) #4 comdat align 2 {
entry:
  %retval = alloca %"struct.std::pair", align 8
  %this.addr = alloca ptr, align 8
  %__args.addr = alloca ptr, align 8
  %__args.addr2 = alloca ptr, align 8
  %0 = alloca ptr, align 8
  %ref.tmp = alloca %"struct.std::pair.505", align 8
  %__a = alloca ptr, align 8
  %__v = alloca ptr, align 8
  store ptr %this, ptr %this.addr, align 8
  store ptr %__args, ptr %__args.addr, align 8
  store ptr %__args1, ptr %__args.addr2, align 8
  %this3 = load ptr, ptr %this.addr, align 8
  %1 = load ptr, ptr %__args.addr, align 8
  %2 = load ptr, ptr %__args.addr2, align 8
  call void @_ZNSt4pairIRPKcRKN4node10UnionBytesEEC2IS2_S6_TnNSt9enable_ifIXaaclsr5_PCCPE18_ConstructiblePairIT_T0_EEclsr5_PCCPE26_ImplicitlyConvertiblePairISA_SB_EEEbE4typeELb1EEES2_S6_(ptr noundef nonnull align 8 dereferenceable(16) %ref.tmp, ptr noundef nonnull align 8 dereferenceable(8) %1, ptr noundef nonnull align 8 dereferenceable(16) %2)
  store ptr %ref.tmp, ptr %0, align 8
  %3 = load ptr, ptr %0, align 8
  %call = call noundef nonnull align 8 dereferenceable(8) ptr @_ZSt3getILm0ERPKcRKN4node10UnionBytesEEONSt13tuple_elementIXT_ESt4pairIT0_T1_EE4typeEOSB_(ptr noundef nonnull align 8 dereferenceable(16) %3) #3
  store ptr %call, ptr %__a, align 8
  %4 = load ptr, ptr %0, align 8
  %call4 = call noundef nonnull align 8 dereferenceable(16) ptr @_ZSt3getILm1ERPKcRKN4node10UnionBytesEEONSt13tuple_elementIXT_ESt4pairIT0_T1_EE4typeEOSB_(ptr noundef nonnull align 8 dereferenceable(16) %4) #3
  store ptr %call4, ptr %__v, align 8
  %_M_t = getelementptr inbounds %"class.std::map", ptr %this3, i32 0, i32 0
  %5 = load ptr, ptr %__args.addr, align 8
  %6 = load ptr, ptr %__args.addr2, align 8
  %call5 = call { ptr, i8 } @_ZNSt8_Rb_treeINSt7__cxx1112basic_stringIcSt11char_traitsIcESaIcEEESt4pairIKS5_N4node10UnionBytesEESt10_Select1stISA_ESt4lessIS5_ESaISA_EE17_M_emplace_uniqueIJRPKcRKS9_EEES6_ISt17_Rb_tree_iteratorISA_EbEDpOT_(ptr noundef nonnull align 8 dereferenceable(48) %_M_t, ptr noundef nonnull align 8 dereferenceable(8) %5, ptr noundef nonnull align 8 dereferenceable(16) %6)
  %7 = getelementptr inbounds { ptr, i8 }, ptr %retval, i32 0, i32 0
  %8 = extractvalue { ptr, i8 } %call5, 0
  store ptr %8, ptr %7, align 8
  %9 = getelementptr inbounds { ptr, i8 }, ptr %retval, i32 0, i32 1
  %10 = extractvalue { ptr, i8 } %call5, 1
  store i8 %10, ptr %9, align 8
  %11 = load { ptr, i8 }, ptr %retval, align 8
  ret { ptr, i8 } %11
}

; Function Attrs: mustprogress nounwind uwtable
define linkonce_odr dso_local noundef ptr @_ZN4node21ThreadsafeCopyOnWriteISt3mapINSt7__cxx1112basic_stringIcSt11char_traitsIcESaIcEEENS_10UnionBytesESt4lessIS7_ESaISt4pairIKS7_S8_EEEE5WriteptEv(ptr noundef nonnull align 8 dereferenceable(24) %this) #4 comdat align 2 {
entry:
  %this.addr = alloca ptr, align 8
  store ptr %this, ptr %this.addr, align 8
  %this1 = load ptr, ptr %this.addr, align 8
  %impl_ = getelementptr inbounds %"class.node::ThreadsafeCopyOnWrite<std::map<std::__cxx11::basic_string<char>, node::UnionBytes>>::Write", ptr %this1, i32 0, i32 1
  %0 = load ptr, ptr %impl_, align 8
  %data = getelementptr inbounds %"struct.node::ThreadsafeCopyOnWrite<std::map<std::__cxx11::basic_string<char>, node::UnionBytes>>::Impl", ptr %0, i32 0, i32 1
  ret ptr %data
}

; Function Attrs: mustprogress nounwind uwtable
define linkonce_odr dso_local void @_ZN4node21ThreadsafeCopyOnWriteISt3mapINSt7__cxx1112basic_stringIcSt11char_traitsIcESaIcEEENS_10UnionBytesESt4lessIS7_ESaISt4pairIKS7_S8_EEEE5writeEv(ptr noalias sret(%"class.node::ThreadsafeCopyOnWrite<std::map<std::__cxx11::basic_string<char>, node::UnionBytes>>::Write") align 8 %agg.result, ptr noundef nonnull align 8 dereferenceable(16) %this) #4 comdat align 2 {
entry:
  %result.ptr = alloca ptr, align 8
  %this.addr = alloca ptr, align 8
  store ptr %agg.result, ptr %result.ptr, align 8
  store ptr %this, ptr %this.addr, align 8
  %this1 = load ptr, ptr %this.addr, align 8
  call void @_ZN4node21ThreadsafeCopyOnWriteISt3mapINSt7__cxx1112basic_stringIcSt11char_traitsIcESaIcEEENS_10UnionBytesESt4lessIS7_ESaISt4pairIKS7_S8_EEEE5WriteC2EPSG_(ptr noundef nonnull align 8 dereferenceable(24) %agg.result, ptr noundef %this1)
  ret void
}

; Function Attrs: mustprogress nounwind uwtable
define dso_local noundef zeroext i1 @_ZN4node8builtins13BuiltinLoader3AddEPKcRKNS_10UnionBytesE(ptr noundef nonnull align 8 dereferenceable(48) %this, ptr noundef %id, ptr noundef nonnull align 8 dereferenceable(16) %source) #4 align 2 {
entry:
  %this.addr = alloca ptr, align 8
  %id.addr = alloca ptr, align 8
  %source.addr = alloca ptr, align 8
  %result = alloca %"struct.std::pair", align 8
  %ref.tmp = alloca %"class.node::ThreadsafeCopyOnWrite<std::map<std::__cxx11::basic_string<char>, node::UnionBytes>>::Write", align 8
  store ptr %this, ptr %this.addr, align 8
  store ptr %id, ptr %id.addr, align 8
  store ptr %source, ptr %source.addr, align 8
  %this1 = load ptr, ptr %this.addr, align 8
  %source_ = getelementptr inbounds %"class.node::builtins::BuiltinLoader", ptr %this1, i32 0, i32 0
  call void @_ZN4node21ThreadsafeCopyOnWriteISt3mapINSt7__cxx1112basic_stringIcSt11char_traitsIcESaIcEEENS_10UnionBytesESt4lessIS7_ESaISt4pairIKS7_S8_EEEE5writeEv(ptr sret(%"class.node::ThreadsafeCopyOnWrite<std::map<std::__cxx11::basic_string<char>, node::UnionBytes>>::Write") align 8 %ref.tmp, ptr noundef nonnull align 8 dereferenceable(16) %source_)
  %call = call noundef ptr @_ZN4node21ThreadsafeCopyOnWriteISt3mapINSt7__cxx1112basic_stringIcSt11char_traitsIcESaIcEEENS_10UnionBytesESt4lessIS7_ESaISt4pairIKS7_S8_EEEE5WriteptEv(ptr noundef nonnull align 8 dereferenceable(24) %ref.tmp)
  %0 = load ptr, ptr %source.addr, align 8
  %call2 = call { ptr, i8 } @_ZNSt3mapINSt7__cxx1112basic_stringIcSt11char_traitsIcESaIcEEEN4node10UnionBytesESt4lessIS5_ESaISt4pairIKS5_S7_EEE7emplaceIJRPKcRKS7_EEESA_ISt17_Rb_tree_iteratorISC_EbEDpOT_(ptr noundef nonnull align 8 dereferenceable(48) %call, ptr noundef nonnull align 8 dereferenceable(8) %id.addr, ptr noundef nonnull align 8 dereferenceable(16) %0)
  %1 = getelementptr inbounds { ptr, i8 }, ptr %result, i32 0, i32 0
  %2 = extractvalue { ptr, i8 } %call2, 0
  store ptr %2, ptr %1, align 8
  %3 = getelementptr inbounds { ptr, i8 }, ptr %result, i32 0, i32 1
  %4 = extractvalue { ptr, i8 } %call2, 1
  store i8 %4, ptr %3, align 8
  call void @_ZN4node21ThreadsafeCopyOnWriteISt3mapINSt7__cxx1112basic_stringIcSt11char_traitsIcESaIcEEENS_10UnionBytesESt4lessIS7_ESaISt4pairIKS7_S8_EEEE5WriteD2Ev(ptr noundef nonnull align 8 dereferenceable(24) %ref.tmp) #3
  %second = getelementptr inbounds %"struct.std::pair", ptr %result, i32 0, i32 1
  %5 = load i8, ptr %second, align 8
  %tobool = trunc i8 %5 to i1
  ret i1 %tobool
}