; Function Attrs: mustprogress nounwind uwtable
define dso_local noundef zeroext i1 @_ZN4node8builtins13BuiltinLoader3AddEPKcRKNS_10UnionBytesE(ptr noundef nonnull align 8 dereferenceable(48) %this, ptr noundef %id, ptr noundef nonnull align 8 dereferenceable(16) %source) local_unnamed_addr #3 align 2 {
entry:
  %id.addr = alloca ptr, align 8
  store ptr %id, ptr %id.addr, align 8
  %call.i.i = tail call noundef ptr @_ZN4node11CopyOnWriteINS_21ThreadsafeCopyOnWriteISt3mapINSt7__cxx1112basic_stringIcSt11char_traitsIcESaIcEEENS_10UnionBytesESt4lessIS8_ESaISt4pairIKS8_S9_EEEE4ImplEE5writeEv(ptr noundef nonnull align 8 dereferenceable(16) %this), !noalias !22
  tail call void @uv_rwlock_wrlock(ptr noundef nonnull %call.i.i) #23, !noalias !22
  %data.i = getelementptr inbounds i8, ptr %call.i.i, i64 56
  %call5.i = call { ptr, i8 } @_ZNSt8_Rb_treeINSt7__cxx1112basic_stringIcSt11char_traitsIcESaIcEEESt4pairIKS5_N4node10UnionBytesEESt10_Select1stISA_ESt4lessIS5_ESaISA_EE17_M_emplace_uniqueIJRPKcRKS9_EEES6_ISt17_Rb_tree_iteratorISA_EbEDpOT_(ptr noundef nonnull align 8 dereferenceable(48) %data.i, ptr noundef nonnull align 8 dereferenceable(8) %id.addr, ptr noundef nonnull align 8 dereferenceable(16) %source)
  %0 = extractvalue { ptr, i8 } %call5.i, 1
  call void @uv_rwlock_wrunlock(ptr noundef %call.i.i) #23
  %1 = and i8 %0, 1
  %tobool = icmp ne i8 %1, 0
  ret i1 %tobool
}